; Function Attrs: nounwind sspstrong uwtable
define hidden i64 @rb_int_comp(i64 noundef %0) local_unnamed_addr #2 {
  %2 = and i64 %0, 1
  %.not = icmp eq i64 %2, 0
  br i1 %.not, label %6, label %3

3:                                                ; preds = %1
  %4 = xor i64 %0, -1
  %5 = or disjoint i64 %4, 1
  br label %rbimpl_RB_TYPE_P_fastpath.exit.thread

6:                                                ; preds = %1
  %7 = icmp eq i64 %0, 0
  %8 = and i64 %0, 6
  %9 = icmp ne i64 %8, 0
  %10 = or i1 %7, %9
  br i1 %10, label %rbimpl_RB_TYPE_P_fastpath.exit.thread, label %rbimpl_RB_TYPE_P_fastpath.exit

rbimpl_RB_TYPE_P_fastpath.exit:                   ; preds = %6
  %11 = inttoptr i64 %0 to ptr
  %12 = load i64, ptr %11, align 8, !tbaa !11
  %13 = and i64 %12, 31
  %14 = icmp eq i64 %13, 10
  br i1 %14, label %15, label %rbimpl_RB_TYPE_P_fastpath.exit.thread

15:                                               ; preds = %rbimpl_RB_TYPE_P_fastpath.exit
  %16 = tail call i64 @rb_big_comp(i64 noundef %0) #26
  br label %rbimpl_RB_TYPE_P_fastpath.exit.thread

rbimpl_RB_TYPE_P_fastpath.exit.thread:            ; preds = %6, %rbimpl_RB_TYPE_P_fastpath.exit, %15, %3
  %.0 = phi i64 [ %5, %3 ], [ %16, %15 ], [ 4, %rbimpl_RB_TYPE_P_fastpath.exit ], [ 4, %6 ]
  ret i64 %.0
}